target datalayout = "e-m:e-p270:32:32-p271:32:32-p272:64:64-i64:64-i128:128-f80:128-n8:16:32:64-S128"
target triple = "x86_64-unknown-linux-gnu"

%"class.rocksdb::Slice" = type { ptr, i64 }

@.str = private unnamed_addr constant [49 x i8] c"[%s:46] uint64 value corruption, size: %zu > %zu\00", align 1
@.str.1 = private unnamed_addr constant [132 x i8] c"generated/home/dtcxzyw/WorkSpace/Projects/compilers/llvm-opt-benchmark/bench/rocksdb/rocksdb/utilities/merge_operators/uint64add.cc\00", align 1

; Function Attrs: mustprogress nounwind uwtable
define linkonce_odr noundef ptr @_Z23RocksLogShorterFileNamePKc(ptr noundef %file) #2 comdat {
entry:
  %file.addr = alloca ptr, align 8
  store ptr %file, ptr %file.addr, align 8
  %0 = load ptr, ptr %file.addr, align 8
  %add.ptr = getelementptr inbounds i8, ptr %0, i64 93
  ret ptr %add.ptr
}

; Function Attrs: mustprogress nounwind uwtable
define linkonce_odr noundef i64 @_ZN7rocksdb13DecodeFixed64EPKc(ptr noundef %ptr) #2 comdat {
entry:
  %ptr.addr = alloca ptr, align 8
  %result = alloca i64, align 8
  store ptr %ptr, ptr %ptr.addr, align 8
  %0 = load ptr, ptr %ptr.addr, align 8
  call void @llvm.memcpy.p0.p0.i64(ptr align 8 %result, ptr align 1 %0, i64 8, i1 false)
  %1 = load i64, ptr %result, align 8
  ret i64 %1
}

; Function Attrs: mustprogress nounwind uwtable
define linkonce_odr noundef ptr @_ZNK7rocksdb5Slice4dataEv(ptr noundef nonnull align 8 dereferenceable(16) %this) #2 comdat align 2 {
entry:
  %this.addr = alloca ptr, align 8
  store ptr %this, ptr %this.addr, align 8
  %this1 = load ptr, ptr %this.addr, align 8
  %data_ = getelementptr inbounds %"class.rocksdb::Slice", ptr %this1, i32 0, i32 0
  %0 = load ptr, ptr %data_, align 8
  ret ptr %0
}

; Function Attrs: mustprogress nounwind uwtable
define linkonce_odr noundef i64 @_ZNK7rocksdb5Slice4sizeEv(ptr noundef nonnull align 8 dereferenceable(16) %this) #2 comdat align 2 {
entry:
  %this.addr = alloca ptr, align 8
  store ptr %this, ptr %this.addr, align 8
  %this1 = load ptr, ptr %this.addr, align 8
  %size_ = getelementptr inbounds %"class.rocksdb::Slice", ptr %this1, i32 0, i32 1
  %0 = load i64, ptr %size_, align 8
  ret i64 %0
}

; Function Attrs: mustprogress uwtable
define linkonce_odr void @_ZN7rocksdb10PutFixed64EPNSt7__cxx1112basic_stringIcSt11char_traitsIcESaIcEEEm(ptr noundef %dst, i64 noundef %value) #0 comdat {
entry:
  %dst.addr = alloca ptr, align 8
  %value.addr = alloca i64, align 8
  store ptr %dst, ptr %dst.addr, align 8
  store i64 %value, ptr %value.addr, align 8
  %0 = load ptr, ptr %dst.addr, align 8
  %call = call noundef nonnull align 8 dereferenceable(32) ptr @_ZNSt7__cxx1112basic_stringIcSt11char_traitsIcESaIcEE6appendEPKcm(ptr noundef nonnull align 8 dereferenceable(32) %0, ptr noundef %value.addr, i64 noundef 8)
  ret void
}

; Function Attrs: mustprogress uwtable
define noundef i64 @_ZNK7rocksdb17UInt64AddOperator13DecodeIntegerERKNS_5SliceEPNS_6LoggerE(ptr noundef nonnull align 8 dereferenceable(32) %this, ptr noundef nonnull align 8 dereferenceable(16) %value, ptr noundef %logger) #0 align 2 {
entry:
  %this.addr = alloca ptr, align 8
  %value.addr = alloca ptr, align 8
  %logger.addr = alloca ptr, align 8
  %result = alloca i64, align 8
  store ptr %this, ptr %this.addr, align 8
  store ptr %value, ptr %value.addr, align 8
  store ptr %logger, ptr %logger.addr, align 8
  store i64 0, ptr %result, align 8
  %0 = load ptr, ptr %value.addr, align 8
  %call = call noundef i64 @_ZNK7rocksdb5Slice4sizeEv(ptr noundef nonnull align 8 dereferenceable(16) %0)
  %cmp = icmp eq i64 %call, 8
  br i1 %cmp, label %if.then, label %if.else

if.then:                                          ; preds = %entry
  %1 = load ptr, ptr %value.addr, align 8
  %call2 = call noundef ptr @_ZNK7rocksdb5Slice4dataEv(ptr noundef nonnull align 8 dereferenceable(16) %1)
  %call3 = call noundef i64 @_ZN7rocksdb13DecodeFixed64EPKc(ptr noundef %call2)
  store i64 %call3, ptr %result, align 8
  br label %if.end8

if.else:                                          ; preds = %entry
  %2 = load ptr, ptr %logger.addr, align 8
  %cmp4 = icmp ne ptr %2, null
  br i1 %cmp4, label %if.then5, label %if.end

if.then5:                                         ; preds = %if.else
  %3 = load ptr, ptr %logger.addr, align 8
  %call6 = call noundef ptr @_Z23RocksLogShorterFileNamePKc(ptr noundef @.str.1)
  %4 = load ptr, ptr %value.addr, align 8
  %call7 = call noundef i64 @_ZNK7rocksdb5Slice4sizeEv(ptr noundef nonnull align 8 dereferenceable(16) %4)
  call void (i8, ptr, ptr, ...) @_ZN7rocksdb3LogENS_12InfoLogLevelEPNS_6LoggerEPKcz(i8 noundef zeroext 3, ptr noundef %3, ptr noundef @.str, ptr noundef %call6, i64 noundef %call7, i64 noundef 8)
  br label %if.end

if.end:                                           ; preds = %if.then5, %if.else
  br label %if.end8

if.end8:                                          ; preds = %if.end, %if.then
  %5 = load i64, ptr %result, align 8
  ret i64 %5
}

; Function Attrs: mustprogress uwtable
define noundef zeroext i1 @_ZNK7rocksdb17UInt64AddOperator5MergeERKNS_5SliceEPS2_S3_PNSt7__cxx1112basic_stringIcSt11char_traitsIcESaIcEEEPNS_6LoggerE(ptr noundef nonnull align 8 dereferenceable(32) %this, ptr noundef nonnull align 8 dereferenceable(16) %0, ptr noundef %existing_value, ptr noundef nonnull align 8 dereferenceable(16) %value, ptr noundef %new_value, ptr noundef %logger) unnamed_addr #0 align 2 {
entry:
  %this.addr = alloca ptr, align 8
  %.addr = alloca ptr, align 8
  %existing_value.addr = alloca ptr, align 8
  %value.addr = alloca ptr, align 8
  %new_value.addr = alloca ptr, align 8
  %logger.addr = alloca ptr, align 8
  %orig_value = alloca i64, align 8
  %operand = alloca i64, align 8
  store ptr %this, ptr %this.addr, align 8
  store ptr %0, ptr %.addr, align 8
  store ptr %existing_value, ptr %existing_value.addr, align 8
  store ptr %value, ptr %value.addr, align 8
  store ptr %new_value, ptr %new_value.addr, align 8
  store ptr %logger, ptr %logger.addr, align 8
  %this1 = load ptr, ptr %this.addr, align 8
  store i64 0, ptr %orig_value, align 8
  %1 = load ptr, ptr %existing_value.addr, align 8
  %tobool = icmp ne ptr %1, null
  br i1 %tobool, label %if.then, label %if.end

if.then:                                          ; preds = %entry
  %2 = load ptr, ptr %existing_value.addr, align 8
  %3 = load ptr, ptr %logger.addr, align 8
  %call = call noundef i64 @_ZNK7rocksdb17UInt64AddOperator13DecodeIntegerERKNS_5SliceEPNS_6LoggerE(ptr noundef nonnull align 8 dereferenceable(32) %this1, ptr noundef nonnull align 8 dereferenceable(16) %2, ptr noundef %3)
  store i64 %call, ptr %orig_value, align 8
  br label %if.end

if.end:                                           ; preds = %if.then, %entry
  %4 = load ptr, ptr %value.addr, align 8
  %5 = load ptr, ptr %logger.addr, align 8
  %call2 = call noundef i64 @_ZNK7rocksdb17UInt64AddOperator13DecodeIntegerERKNS_5SliceEPNS_6LoggerE(ptr noundef nonnull align 8 dereferenceable(32) %this1, ptr noundef nonnull align 8 dereferenceable(16) %4, ptr noundef %5)
  store i64 %call2, ptr %operand, align 8
  %6 = load ptr, ptr %new_value.addr, align 8
  call void @_ZNSt7__cxx1112basic_stringIcSt11char_traitsIcESaIcEE5clearEv(ptr noundef nonnull align 8 dereferenceable(32) %6) #11
  %7 = load ptr, ptr %new_value.addr, align 8
  %8 = load i64, ptr %orig_value, align 8
  %9 = load i64, ptr %operand, align 8
  %add = add i64 %8, %9
  call void @_ZN7rocksdb10PutFixed64EPNSt7__cxx1112basic_stringIcSt11char_traitsIcESaIcEEEm(ptr noundef %7, i64 noundef %add)
  ret i1 true
}