; Function Attrs: mustprogress uwtable
define noundef zeroext i1 @_ZNK7rocksdb17UInt64AddOperator5MergeERKNS_5SliceEPS2_S3_PNSt7__cxx1112basic_stringIcSt11char_traitsIcESaIcEEEPNS_6LoggerE(ptr nocapture nonnull readnone align 8 %this, ptr nocapture nonnull readnone align 8 %0, ptr noundef readonly %existing_value, ptr nocapture noundef nonnull readonly align 8 dereferenceable(16) %value, ptr noundef %new_value, ptr noundef %logger) unnamed_addr #0 align 2 {
entry:
  %value.addr.i = alloca i64, align 8
  %tobool.not = icmp eq ptr %existing_value, null
  br i1 %tobool.not, label %if.end, label %if.then

if.then:                                          ; preds = %entry
  %size_.i.i = getelementptr inbounds i8, ptr %existing_value, i64 8
  %1 = load i64, ptr %size_.i.i, align 8
  %cmp.i = icmp eq i64 %1, 8
  br i1 %cmp.i, label %if.then.i, label %if.else.i

if.then.i:                                        ; preds = %if.then
  %2 = load ptr, ptr %existing_value, align 8
  %result.0.copyload.i.i = load i64, ptr %2, align 1
  br label %if.end

if.else.i:                                        ; preds = %if.then
  %cmp4.not.i = icmp eq ptr %logger, null
  br i1 %cmp4.not.i, label %if.end.thread, label %if.then5.i

if.then5.i:                                       ; preds = %if.else.i
  tail call void (i8, ptr, ptr, ...) @_ZN7rocksdb3LogENS_12InfoLogLevelEPNS_6LoggerEPKcz(i8 noundef zeroext 3, ptr noundef nonnull %logger, ptr noundef nonnull @.str, ptr noundef nonnull getelementptr inbounds ([132 x i8], ptr @.str.1, i64 0, i64 93), i64 noundef %1, i64 noundef 8)
  br label %if.end

if.end:                                           ; preds = %if.then5.i, %if.then.i, %entry
  %orig_value.0 = phi i64 [ 0, %entry ], [ %result.0.copyload.i.i, %if.then.i ], [ 0, %if.then5.i ]
  %size_.i.i4 = getelementptr inbounds i8, ptr %value, i64 8
  %3 = load i64, ptr %size_.i.i4, align 8
  %cmp.i5 = icmp eq i64 %3, 8
  br i1 %cmp.i5, label %if.then.i10, label %if.else.i6

if.end.thread:                                    ; preds = %if.else.i
  %size_.i.i414 = getelementptr inbounds i8, ptr %value, i64 8
  %4 = load i64, ptr %size_.i.i414, align 8
  %cmp.i515 = icmp eq i64 %4, 8
  br i1 %cmp.i515, label %if.then.i10, label %_ZNK7rocksdb17UInt64AddOperator13DecodeIntegerERKNS_5SliceEPNS_6LoggerE.exit12

if.then.i10:                                      ; preds = %if.end.thread, %if.end
  %orig_value.018 = phi i64 [ 0, %if.end.thread ], [ %orig_value.0, %if.end ]
  %5 = load ptr, ptr %value, align 8
  %result.0.copyload.i.i11 = load i64, ptr %5, align 1
  br label %_ZNK7rocksdb17UInt64AddOperator13DecodeIntegerERKNS_5SliceEPNS_6LoggerE.exit12

if.else.i6:                                       ; preds = %if.end
  %cmp4.not.i7 = icmp eq ptr %logger, null
  br i1 %cmp4.not.i7, label %_ZNK7rocksdb17UInt64AddOperator13DecodeIntegerERKNS_5SliceEPNS_6LoggerE.exit12, label %if.then5.i8

if.then5.i8:                                      ; preds = %if.else.i6
  tail call void (i8, ptr, ptr, ...) @_ZN7rocksdb3LogENS_12InfoLogLevelEPNS_6LoggerEPKcz(i8 noundef zeroext 3, ptr noundef nonnull %logger, ptr noundef nonnull @.str, ptr noundef nonnull getelementptr inbounds ([132 x i8], ptr @.str.1, i64 0, i64 93), i64 noundef %3, i64 noundef 8)
  br label %_ZNK7rocksdb17UInt64AddOperator13DecodeIntegerERKNS_5SliceEPNS_6LoggerE.exit12

_ZNK7rocksdb17UInt64AddOperator13DecodeIntegerERKNS_5SliceEPNS_6LoggerE.exit12: ; preds = %if.end.thread, %if.then.i10, %if.else.i6, %if.then5.i8
  %orig_value.016 = phi i64 [ %orig_value.018, %if.then.i10 ], [ %orig_value.0, %if.then5.i8 ], [ %orig_value.0, %if.else.i6 ], [ 0, %if.end.thread ]
  %result.0.i9 = phi i64 [ %result.0.copyload.i.i11, %if.then.i10 ], [ 0, %if.then5.i8 ], [ 0, %if.else.i6 ], [ 0, %if.end.thread ]
  tail call void @_ZNSt7__cxx1112basic_stringIcSt11char_traitsIcESaIcEE5clearEv(ptr noundef nonnull align 8 dereferenceable(32) %new_value) #11
  %add = add i64 %result.0.i9, %orig_value.016
  call void @llvm.lifetime.start.p0(i64 8, ptr nonnull %value.addr.i)
  store i64 %add, ptr %value.addr.i, align 8
  %call.i = call noundef nonnull align 8 dereferenceable(32) ptr @_ZNSt7__cxx1112basic_stringIcSt11char_traitsIcESaIcEE6appendEPKcm(ptr noundef nonnull align 8 dereferenceable(32) %new_value, ptr noundef nonnull %value.addr.i, i64 noundef 8)
  call void @llvm.lifetime.end.p0(i64 8, ptr nonnull %value.addr.i)
  ret i1 true
}